; ModuleID = '57/1597.c'
source_filename = "57/1597.c"
target datalayout = "e-m:e-p270:32:32-p271:32:32-p272:64:64-i64:64-f80:128-n8:16:32:64-S128"
target triple = "x86_64-pc-linux-gnu"

@.str = private unnamed_addr constant [3 x i8] c"%d\00", align 1
@.str.1 = private unnamed_addr constant [3 x i8] c"%s\00", align 1
@.str.2 = private unnamed_addr constant [4 x i8] c"er\00\00", align 1
@.str.3 = private unnamed_addr constant [4 x i8] c"ly\00\00", align 1
@.str.4 = private unnamed_addr constant [5 x i8] c"ing\00\00", align 1
@.str.5 = private unnamed_addr constant [4 x i8] c"%s\0A\00", align 1

; Function Attrs: noinline nounwind uwtable
define dso_local void @main() #0 {
  %1 = alloca i32, align 4
  %2 = alloca i32, align 4
  %3 = alloca i32, align 4
  %4 = alloca i32, align 4
  %5 = alloca [50 x [15 x i8]], align 16
  %6 = alloca i8*, align 8
  %7 = call i32 (i8*, ...) @__isoc99_scanf(i8* getelementptr inbounds ([3 x i8], [3 x i8]* @.str, i64 0, i64 0), i32* %1)
  store i32 0, i32* %2, align 4
  br label %8

8:                                                ; preds = %57, %0
  %9 = load i32, i32* %2, align 4
  %10 = load i32, i32* %1, align 4
  %11 = icmp slt i32 %9, %10
  br i1 %11, label %12, label %60

12:                                               ; preds = %8
  %13 = load i32, i32* %2, align 4
  %14 = sext i32 %13 to i64
  %15 = getelementptr inbounds [50 x [15 x i8]], [50 x [15 x i8]]* %5, i64 0, i64 %14
  %16 = getelementptr inbounds [15 x i8], [15 x i8]* %15, i64 0, i64 0
  %17 = call i32 (i8*, ...) @__isoc99_scanf(i8* getelementptr inbounds ([3 x i8], [3 x i8]* @.str.1, i64 0, i64 0), i8* %16)
  %18 = load i32, i32* %2, align 4
  %19 = sext i32 %18 to i64
  %20 = getelementptr inbounds [50 x [15 x i8]], [50 x [15 x i8]]* %5, i64 0, i64 %19
  %21 = getelementptr inbounds [15 x i8], [15 x i8]* %20, i64 0, i64 0
  %22 = call i64 @strlen(i8* %21) #3
  %23 = trunc i64 %22 to i32
  store i32 %23, i32* %4, align 4
  store i32 0, i32* %3, align 4
  br label %24

24:                                               ; preds = %53, %12
  %25 = load i32, i32* %3, align 4
  %26 = load i32, i32* %4, align 4
  %27 = icmp slt i32 %25, %26
  br i1 %27, label %28, label %56

28:                                               ; preds = %24
  %29 = load i32, i32* %2, align 4
  %30 = sext i32 %29 to i64
  %31 = getelementptr inbounds [50 x [15 x i8]], [50 x [15 x i8]]* %5, i64 0, i64 %30
  %32 = getelementptr inbounds [15 x i8], [15 x i8]* %31, i64 0, i64 0
  %33 = load i32, i32* %3, align 4
  %34 = sext i32 %33 to i64
  %35 = getelementptr inbounds i8, i8* %32, i64 %34
  store i8* %35, i8** %6, align 8
  br label %36

36:                                               ; preds = %50, %28
  %37 = load i8*, i8** %6, align 8
  %38 = call i32 @strcmp(i8* %37, i8* getelementptr inbounds ([4 x i8], [4 x i8]* @.str.2, i64 0, i64 0)) #3
  %39 = icmp eq i32 %38, 0
  br i1 %39, label %48, label %40

40:                                               ; preds = %36
  %41 = load i8*, i8** %6, align 8
  %42 = call i32 @strcmp(i8* %41, i8* getelementptr inbounds ([4 x i8], [4 x i8]* @.str.3, i64 0, i64 0)) #3
  %43 = icmp eq i32 %42, 0
  br i1 %43, label %48, label %44

44:                                               ; preds = %40
  %45 = load i8*, i8** %6, align 8
  %46 = call i32 @strcmp(i8* %45, i8* getelementptr inbounds ([5 x i8], [5 x i8]* @.str.4, i64 0, i64 0)) #3
  %47 = icmp eq i32 %46, 0
  br label %48

48:                                               ; preds = %44, %40, %36
  %49 = phi i1 [ true, %40 ], [ true, %36 ], [ %47, %44 ]
  br i1 %49, label %50, label %52

50:                                               ; preds = %48
  %51 = load i8*, i8** %6, align 8
  store i8 0, i8* %51, align 1
  br label %36

52:                                               ; preds = %48
  br label %53

53:                                               ; preds = %52
  %54 = load i32, i32* %3, align 4
  %55 = add nsw i32 %54, 1
  store i32 %55, i32* %3, align 4
  br label %24

56:                                               ; preds = %24
  br label %57

57:                                               ; preds = %56
  %58 = load i32, i32* %2, align 4
  %59 = add nsw i32 %58, 1
  store i32 %59, i32* %2, align 4
  br label %8

60:                                               ; preds = %8
  store i32 0, i32* %2, align 4
  br label %61

61:                                               ; preds = %71, %60
  %62 = load i32, i32* %2, align 4
  %63 = load i32, i32* %1, align 4
  %64 = icmp slt i32 %62, %63
  br i1 %64, label %65, label %74

65:                                               ; preds = %61
  %66 = load i32, i32* %2, align 4
  %67 = sext i32 %66 to i64
  %68 = getelementptr inbounds [50 x [15 x i8]], [50 x [15 x i8]]* %5, i64 0, i64 %67
  %69 = getelementptr inbounds [15 x i8], [15 x i8]* %68, i64 0, i64 0
  %70 = call i32 (i8*, ...) @printf(i8* getelementptr inbounds ([4 x i8], [4 x i8]* @.str.5, i64 0, i64 0), i8* %69)
  br label %71

71:                                               ; preds = %65
  %72 = load i32, i32* %2, align 4
  %73 = add nsw i32 %72, 1
  store i32 %73, i32* %2, align 4
  br label %61

74:                                               ; preds = %61
  ret void
}

declare dso_local i32 @__isoc99_scanf(i8*, ...) #1

; Function Attrs: nounwind readonly
declare dso_local i64 @strlen(i8*) #2

; Function Attrs: nounwind readonly
declare dso_local i32 @strcmp(i8*, i8*) #2

declare dso_local i32 @printf(i8*, ...) #1


!llvm.module.flags = !{!0}
!llvm.ident = !{!1}

!0 = !{i32 1, !"wchar_size", i32 4}
!1 = !{!"clang version 10.0.0-4ubuntu1 "}
