; ModuleID = 'source-C-CXX/56/1597.c'
source_filename = "source-C-CXX/56/1597.c"
target datalayout = "e-m:e-p270:32:32-p271:32:32-p272:64:64-i64:64-f80:128-n8:16:32:64-S128"
target triple = "x86_64-pc-linux-gnu"

@.str = private unnamed_addr constant [3 x i8] c"%d\00", align 1
@.str.1 = private unnamed_addr constant [3 x i8] c"%s\00", align 1
@.str.2 = private unnamed_addr constant [4 x i8] c"er\00\00", align 1
@.str.3 = private unnamed_addr constant [4 x i8] c"ly\00\00", align 1
@.str.4 = private unnamed_addr constant [5 x i8] c"ing\00\00", align 1

; Function Attrs: nofree nounwind sspstrong uwtable
define dso_local void @main() local_unnamed_addr #0 {
  %1 = alloca i32, align 4
  %2 = alloca [50 x [15 x i8]], align 16
  %3 = bitcast i32* %1 to i8*
  call void @llvm.lifetime.start.p0i8(i64 4, i8* nonnull %3) #5
  %4 = getelementptr inbounds [50 x [15 x i8]], [50 x [15 x i8]]* %2, i64 0, i64 0, i64 0
  call void @llvm.lifetime.start.p0i8(i64 750, i8* nonnull %4) #5
  %5 = call i32 (i8*, ...) @__isoc99_scanf(i8* getelementptr inbounds ([3 x i8], [3 x i8]* @.str, i64 0, i64 0), i32* nonnull %1)
  %6 = load i32, i32* %1, align 4, !tbaa !5
  %7 = icmp sgt i32 %6, 0
  br i1 %7, label %10, label %49

8:                                                ; preds = %36
  %9 = icmp sgt i32 %38, 0
  br i1 %9, label %41, label %49

10:                                               ; preds = %0, %36
  %11 = phi i64 [ %37, %36 ], [ 0, %0 ]
  %12 = getelementptr inbounds [50 x [15 x i8]], [50 x [15 x i8]]* %2, i64 0, i64 %11, i64 0
  %13 = call i32 (i8*, ...) @__isoc99_scanf(i8* getelementptr inbounds ([3 x i8], [3 x i8]* @.str.1, i64 0, i64 0), i8* nonnull %12)
  %14 = call i64 @strlen(i8* noundef nonnull %12) #6
  %15 = trunc i64 %14 to i32
  %16 = icmp sgt i32 %15, 0
  br i1 %16, label %17, label %36

17:                                               ; preds = %10
  %18 = shl i64 %14, 32
  %19 = ashr exact i64 %18, 32
  br label %20

20:                                               ; preds = %17, %33
  %21 = phi i64 [ 0, %17 ], [ %34, %33 ]
  %22 = getelementptr inbounds [50 x [15 x i8]], [50 x [15 x i8]]* %2, i64 0, i64 %11, i64 %21
  br label %23

23:                                               ; preds = %32, %20
  %24 = call i32 @strcmp(i8* noundef nonnull %22, i8* noundef nonnull dereferenceable(3) getelementptr inbounds ([4 x i8], [4 x i8]* @.str.2, i64 0, i64 0)) #6
  %25 = icmp eq i32 %24, 0
  br i1 %25, label %32, label %26

26:                                               ; preds = %23
  %27 = call i32 @strcmp(i8* noundef nonnull %22, i8* noundef nonnull dereferenceable(3) getelementptr inbounds ([4 x i8], [4 x i8]* @.str.3, i64 0, i64 0)) #6
  %28 = icmp eq i32 %27, 0
  br i1 %28, label %32, label %29

29:                                               ; preds = %26
  %30 = call i32 @strcmp(i8* noundef nonnull %22, i8* noundef nonnull dereferenceable(4) getelementptr inbounds ([5 x i8], [5 x i8]* @.str.4, i64 0, i64 0)) #6
  %31 = icmp eq i32 %30, 0
  br i1 %31, label %32, label %33

32:                                               ; preds = %23, %26, %29
  store i8 0, i8* %22, align 1, !tbaa !9
  br label %23, !llvm.loop !10

33:                                               ; preds = %29
  %34 = add nuw nsw i64 %21, 1
  %35 = icmp eq i64 %34, %19
  br i1 %35, label %36, label %20, !llvm.loop !12

36:                                               ; preds = %33, %10
  %37 = add nuw nsw i64 %11, 1
  %38 = load i32, i32* %1, align 4, !tbaa !5
  %39 = sext i32 %38 to i64
  %40 = icmp slt i64 %37, %39
  br i1 %40, label %10, label %8, !llvm.loop !13

41:                                               ; preds = %8, %41
  %42 = phi i64 [ %45, %41 ], [ 0, %8 ]
  %43 = getelementptr inbounds [50 x [15 x i8]], [50 x [15 x i8]]* %2, i64 0, i64 %42, i64 0
  %44 = call i32 @puts(i8* nonnull %43)
  %45 = add nuw nsw i64 %42, 1
  %46 = load i32, i32* %1, align 4, !tbaa !5
  %47 = sext i32 %46 to i64
  %48 = icmp slt i64 %45, %47
  br i1 %48, label %41, label %49, !llvm.loop !14

49:                                               ; preds = %41, %0, %8
  call void @llvm.lifetime.end.p0i8(i64 750, i8* nonnull %4) #5
  call void @llvm.lifetime.end.p0i8(i64 4, i8* nonnull %3) #5
  ret void
}

; Function Attrs: argmemonly mustprogress nofree nosync nounwind willreturn
declare void @llvm.lifetime.start.p0i8(i64 immarg, i8* nocapture) #1

; Function Attrs: nofree nounwind
declare noundef i32 @__isoc99_scanf(i8* nocapture noundef readonly, ...) local_unnamed_addr #2

; Function Attrs: argmemonly mustprogress nofree nounwind readonly willreturn
declare i64 @strlen(i8* nocapture) local_unnamed_addr #3

; Function Attrs: argmemonly mustprogress nofree nounwind readonly willreturn
declare i32 @strcmp(i8* nocapture, i8* nocapture) local_unnamed_addr #3

; Function Attrs: argmemonly mustprogress nofree nosync nounwind willreturn
declare void @llvm.lifetime.end.p0i8(i64 immarg, i8* nocapture) #1

; Function Attrs: nofree nounwind
declare noundef i32 @puts(i8* nocapture noundef readonly) local_unnamed_addr #4


!llvm.module.flags = !{!0, !1, !2, !3}
!llvm.ident = !{!4}

!0 = !{i32 1, !"wchar_size", i32 4}
!1 = !{i32 7, !"PIC Level", i32 2}
!2 = !{i32 7, !"PIE Level", i32 2}
!3 = !{i32 7, !"uwtable", i32 1}
!4 = !{!"clang version 13.0.0"}
!5 = !{!6, !6, i64 0}
!6 = !{!"int", !7, i64 0}
!7 = !{!"omnipotent char", !8, i64 0}
!8 = !{!"Simple C/C++ TBAA"}
!9 = !{!7, !7, i64 0}
!10 = distinct !{!10, !11}
!11 = !{!"llvm.loop.mustprogress"}
!12 = distinct !{!12, !11}
!13 = distinct !{!13, !11}
!14 = distinct !{!14, !11}
